target datalayout = "e-m:e-p270:32:32-p271:32:32-p272:64:64-i64:64-i128:128-f80:128-n8:16:32:64-S128"
target triple = "x86_64-pc-linux-gnu"

%struct.opj_stream_private = type { ptr, ptr, i64, ptr, ptr, ptr, ptr, ptr, ptr, ptr, ptr, i64, i64, i64, i32 }

@.str.1 = private unnamed_addr constant [26 x i8] c"Error on writing stream!\0A\00", align 1
@.str.2 = private unnamed_addr constant [15 x i8] c"Stream error!\0A\00", align 1

; Function Attrs: nounwind uwtable
define hidden i32 @opj_stream_flush(ptr noundef %0, ptr noundef %1) #0 {
  %3 = alloca i32, align 4
  %4 = alloca ptr, align 8
  %5 = alloca ptr, align 8
  %6 = alloca i64, align 8
  %7 = alloca i32, align 4
  store ptr %0, ptr %4, align 8, !tbaa !30
  store ptr %1, ptr %5, align 8, !tbaa !43
  call void @llvm.lifetime.start.p0(i64 8, ptr %6) #4
  store i64 0, ptr %6, align 8, !tbaa !28
  %8 = load ptr, ptr %4, align 8, !tbaa !30
  %9 = getelementptr inbounds nuw %struct.opj_stream_private, ptr %8, i32 0, i32 7
  %10 = load ptr, ptr %9, align 8, !tbaa !34
  %11 = load ptr, ptr %4, align 8, !tbaa !30
  %12 = getelementptr inbounds nuw %struct.opj_stream_private, ptr %11, i32 0, i32 8
  store ptr %10, ptr %12, align 8, !tbaa !35
  br label %13

13:                                               ; preds = %41, %2
  %14 = load ptr, ptr %4, align 8, !tbaa !30
  %15 = getelementptr inbounds nuw %struct.opj_stream_private, ptr %14, i32 0, i32 11
  %16 = load i64, ptr %15, align 8, !tbaa !45
  %17 = icmp ne i64 %16, 0
  br i1 %17, label %18, label %52

18:                                               ; preds = %13
  %19 = load ptr, ptr %4, align 8, !tbaa !30
  %20 = getelementptr inbounds nuw %struct.opj_stream_private, ptr %19, i32 0, i32 4
  %21 = load ptr, ptr %20, align 8, !tbaa !40
  %22 = load ptr, ptr %4, align 8, !tbaa !30
  %23 = getelementptr inbounds nuw %struct.opj_stream_private, ptr %22, i32 0, i32 8
  %24 = load ptr, ptr %23, align 8, !tbaa !35
  %25 = load ptr, ptr %4, align 8, !tbaa !30
  %26 = getelementptr inbounds nuw %struct.opj_stream_private, ptr %25, i32 0, i32 11
  %27 = load i64, ptr %26, align 8, !tbaa !45
  %28 = load ptr, ptr %4, align 8, !tbaa !30
  %29 = getelementptr inbounds nuw %struct.opj_stream_private, ptr %28, i32 0, i32 0
  %30 = load ptr, ptr %29, align 8, !tbaa !48
  %31 = call i64 %21(ptr noundef %24, i64 noundef %27, ptr noundef %30)
  store i64 %31, ptr %6, align 8, !tbaa !28
  %32 = load i64, ptr %6, align 8, !tbaa !28
  %33 = icmp eq i64 %32, -1
  br i1 %33, label %34, label %41

34:                                               ; preds = %18
  %35 = load ptr, ptr %4, align 8, !tbaa !30
  %36 = getelementptr inbounds nuw %struct.opj_stream_private, ptr %35, i32 0, i32 14
  %37 = load i32, ptr %36, align 8, !tbaa !36
  %38 = or i32 %37, 8
  store i32 %38, ptr %36, align 8, !tbaa !36
  %39 = load ptr, ptr %5, align 8, !tbaa !43
  %40 = call i32 (ptr, i32, ptr, ...) @opj_event_msg(ptr noundef %39, i32 noundef 4, ptr noundef @.str.1)
  store i32 0, ptr %3, align 4
  store i32 1, ptr %7, align 4
  br label %58

41:                                               ; preds = %18
  %42 = load i64, ptr %6, align 8, !tbaa !28
  %43 = load ptr, ptr %4, align 8, !tbaa !30
  %44 = getelementptr inbounds nuw %struct.opj_stream_private, ptr %43, i32 0, i32 8
  %45 = load ptr, ptr %44, align 8, !tbaa !35
  %46 = getelementptr inbounds nuw i8, ptr %45, i64 %42
  store ptr %46, ptr %44, align 8, !tbaa !35
  %47 = load i64, ptr %6, align 8, !tbaa !28
  %48 = load ptr, ptr %4, align 8, !tbaa !30
  %49 = getelementptr inbounds nuw %struct.opj_stream_private, ptr %48, i32 0, i32 11
  %50 = load i64, ptr %49, align 8, !tbaa !45
  %51 = sub i64 %50, %47
  store i64 %51, ptr %49, align 8, !tbaa !45
  br label %13, !llvm.loop !55

52:                                               ; preds = %13
  %53 = load ptr, ptr %4, align 8, !tbaa !30
  %54 = getelementptr inbounds nuw %struct.opj_stream_private, ptr %53, i32 0, i32 7
  %55 = load ptr, ptr %54, align 8, !tbaa !34
  %56 = load ptr, ptr %4, align 8, !tbaa !30
  %57 = getelementptr inbounds nuw %struct.opj_stream_private, ptr %56, i32 0, i32 8
  store ptr %55, ptr %57, align 8, !tbaa !35
  store i32 1, ptr %3, align 4
  store i32 1, ptr %7, align 4
  br label %58

58:                                               ; preds = %52, %34
  call void @llvm.lifetime.end.p0(i64 8, ptr %6) #4
  %59 = load i32, ptr %3, align 4
  ret i32 %59
}

; Function Attrs: nounwind uwtable
define hidden i64 @opj_stream_write_skip(ptr noundef %0, i64 noundef %1, ptr noundef %2) #0 {
  %4 = alloca i64, align 8
  %5 = alloca ptr, align 8
  %6 = alloca i64, align 8
  %7 = alloca ptr, align 8
  %8 = alloca i32, align 4
  %9 = alloca i64, align 8
  %10 = alloca i64, align 8
  %11 = alloca i32, align 4
  store ptr %0, ptr %5, align 8, !tbaa !30
  store i64 %1, ptr %6, align 8, !tbaa !28
  store ptr %2, ptr %7, align 8, !tbaa !43
  call void @llvm.lifetime.start.p0(i64 4, ptr %8) #4
  store i32 0, ptr %8, align 4, !tbaa !8
  call void @llvm.lifetime.start.p0(i64 8, ptr %9) #4
  store i64 0, ptr %9, align 8, !tbaa !28
  call void @llvm.lifetime.start.p0(i64 8, ptr %10) #4
  store i64 0, ptr %10, align 8, !tbaa !28
  %12 = load ptr, ptr %5, align 8, !tbaa !30
  %13 = getelementptr inbounds nuw %struct.opj_stream_private, ptr %12, i32 0, i32 14
  %14 = load i32, ptr %13, align 8, !tbaa !36
  %15 = and i32 %14, 8
  %16 = icmp ne i32 %15, 0
  br i1 %16, label %17, label %18

17:                                               ; preds = %3
  store i64 -1, ptr %4, align 8
  store i32 1, ptr %11, align 4
  br label %79

18:                                               ; preds = %3
  %19 = load ptr, ptr %5, align 8, !tbaa !30
  %20 = load ptr, ptr %7, align 8, !tbaa !43
  %21 = call i32 @opj_stream_flush(ptr noundef %19, ptr noundef %20)
  store i32 %21, ptr %8, align 4, !tbaa !8
  %22 = load i32, ptr %8, align 4, !tbaa !8
  %23 = icmp ne i32 %22, 0
  br i1 %23, label %31, label %24

24:                                               ; preds = %18
  %25 = load ptr, ptr %5, align 8, !tbaa !30
  %26 = getelementptr inbounds nuw %struct.opj_stream_private, ptr %25, i32 0, i32 14
  %27 = load i32, ptr %26, align 8, !tbaa !36
  %28 = or i32 %27, 8
  store i32 %28, ptr %26, align 8, !tbaa !36
  %29 = load ptr, ptr %5, align 8, !tbaa !30
  %30 = getelementptr inbounds nuw %struct.opj_stream_private, ptr %29, i32 0, i32 11
  store i64 0, ptr %30, align 8, !tbaa !45
  store i64 -1, ptr %4, align 8
  store i32 1, ptr %11, align 4
  br label %79

31:                                               ; preds = %18
  br label %32

32:                                               ; preds = %65, %31
  %33 = load i64, ptr %6, align 8, !tbaa !28
  %34 = icmp sgt i64 %33, 0
  br i1 %34, label %35, label %72

35:                                               ; preds = %32
  %36 = load ptr, ptr %5, align 8, !tbaa !30
  %37 = getelementptr inbounds nuw %struct.opj_stream_private, ptr %36, i32 0, i32 5
  %38 = load ptr, ptr %37, align 8, !tbaa !41
  %39 = load i64, ptr %6, align 8, !tbaa !28
  %40 = load ptr, ptr %5, align 8, !tbaa !30
  %41 = getelementptr inbounds nuw %struct.opj_stream_private, ptr %40, i32 0, i32 0
  %42 = load ptr, ptr %41, align 8, !tbaa !48
  %43 = call i64 %38(i64 noundef %39, ptr noundef %42)
  store i64 %43, ptr %9, align 8, !tbaa !28
  %44 = load i64, ptr %9, align 8, !tbaa !28
  %45 = icmp eq i64 %44, -1
  br i1 %45, label %46, label %65

46:                                               ; preds = %35
  %47 = load ptr, ptr %7, align 8, !tbaa !43
  %48 = call i32 (ptr, i32, ptr, ...) @opj_event_msg(ptr noundef %47, i32 noundef 4, ptr noundef @.str.2)
  %49 = load ptr, ptr %5, align 8, !tbaa !30
  %50 = getelementptr inbounds nuw %struct.opj_stream_private, ptr %49, i32 0, i32 14
  %51 = load i32, ptr %50, align 8, !tbaa !36
  %52 = or i32 %51, 8
  store i32 %52, ptr %50, align 8, !tbaa !36
  %53 = load i64, ptr %10, align 8, !tbaa !28
  %54 = load ptr, ptr %5, align 8, !tbaa !30
  %55 = getelementptr inbounds nuw %struct.opj_stream_private, ptr %54, i32 0, i32 12
  %56 = load i64, ptr %55, align 8, !tbaa !46
  %57 = add nsw i64 %56, %53
  store i64 %57, ptr %55, align 8, !tbaa !46
  %58 = load i64, ptr %10, align 8, !tbaa !28
  %59 = icmp ne i64 %58, 0
  br i1 %59, label %60, label %62

60:                                               ; preds = %46
  %61 = load i64, ptr %10, align 8, !tbaa !28
  br label %63

62:                                               ; preds = %46
  br label %63

63:                                               ; preds = %62, %60
  %64 = phi i64 [ %61, %60 ], [ -1, %62 ]
  store i64 %64, ptr %4, align 8
  store i32 1, ptr %11, align 4
  br label %79

65:                                               ; preds = %35
  %66 = load i64, ptr %9, align 8, !tbaa !28
  %67 = load i64, ptr %6, align 8, !tbaa !28
  %68 = sub nsw i64 %67, %66
  store i64 %68, ptr %6, align 8, !tbaa !28
  %69 = load i64, ptr %9, align 8, !tbaa !28
  %70 = load i64, ptr %10, align 8, !tbaa !28
  %71 = add nsw i64 %70, %69
  store i64 %71, ptr %10, align 8, !tbaa !28
  br label %32, !llvm.loop !50

72:                                               ; preds = %32
  %73 = load i64, ptr %10, align 8, !tbaa !28
  %74 = load ptr, ptr %5, align 8, !tbaa !30
  %75 = getelementptr inbounds nuw %struct.opj_stream_private, ptr %74, i32 0, i32 12
  %76 = load i64, ptr %75, align 8, !tbaa !46
  %77 = add nsw i64 %76, %73
  store i64 %77, ptr %75, align 8, !tbaa !46
  %78 = load i64, ptr %10, align 8, !tbaa !28
  store i64 %78, ptr %4, align 8
  store i32 1, ptr %11, align 4
  br label %79

79:                                               ; preds = %72, %63, %24, %17
  call void @llvm.lifetime.end.p0(i64 8, ptr %10) #4
  call void @llvm.lifetime.end.p0(i64 8, ptr %9) #4
  call void @llvm.lifetime.end.p0(i64 4, ptr %8) #4
  %80 = load i64, ptr %4, align 8
  ret i64 %80
}