; Function Attrs: nounwind uwtable
define hidden i64 @opj_stream_write_skip(ptr noundef captures(none) %0, i64 noundef %1, ptr noundef %2) #5 {
  %4 = getelementptr inbounds nuw i8, ptr %0, i64 112
  %5 = load i32, ptr %4, align 8, !tbaa !26
  %6 = and i32 %5, 8
  %.not = icmp eq i32 %6, 0
  br i1 %.not, label %7, label %55

7:                                                ; preds = %3
  %8 = getelementptr inbounds nuw i8, ptr %0, i64 56
  %9 = load ptr, ptr %8, align 8, !tbaa !24
  %10 = getelementptr inbounds nuw i8, ptr %0, i64 64
  store ptr %9, ptr %10, align 8, !tbaa !25
  %11 = getelementptr inbounds nuw i8, ptr %0, i64 88
  %12 = load i64, ptr %11, align 8, !tbaa !33
  %.not18.i = icmp eq i64 %12, 0
  br i1 %.not18.i, label %opj_stream_flush.exit, label %.lr.ph.i

.lr.ph.i:                                         ; preds = %7
  %13 = getelementptr inbounds nuw i8, ptr %0, i64 32
  br label %14

14:                                               ; preds = %21, %.lr.ph.i
  %15 = phi ptr [ %9, %.lr.ph.i ], [ %23, %21 ]
  %16 = phi i64 [ %12, %.lr.ph.i ], [ %25, %21 ]
  %17 = load ptr, ptr %13, align 8, !tbaa !30
  %18 = load ptr, ptr %0, align 8, !tbaa !36
  %19 = tail call i64 %17(ptr noundef %15, i64 noundef %16, ptr noundef %18) #9
  %20 = icmp eq i64 %19, -1
  br i1 %20, label %29, label %21

21:                                               ; preds = %14
  %22 = load ptr, ptr %10, align 8, !tbaa !25
  %23 = getelementptr inbounds nuw i8, ptr %22, i64 %19
  store ptr %23, ptr %10, align 8, !tbaa !25
  %24 = load i64, ptr %11, align 8, !tbaa !33
  %25 = sub i64 %24, %19
  store i64 %25, ptr %11, align 8, !tbaa !33
  %.not.i = icmp eq i64 %25, 0
  br i1 %.not.i, label %._crit_edge.loopexit.i, label %14, !llvm.loop !38

._crit_edge.loopexit.i:                           ; preds = %21
  %.pre.i = load ptr, ptr %8, align 8, !tbaa !24
  br label %opj_stream_flush.exit

opj_stream_flush.exit:                            ; preds = %7, %._crit_edge.loopexit.i
  %26 = phi ptr [ %.pre.i, %._crit_edge.loopexit.i ], [ %9, %7 ]
  store ptr %26, ptr %10, align 8, !tbaa !25
  %27 = icmp sgt i64 %1, 0
  br i1 %27, label %.lr.ph, label %._crit_edge

.lr.ph:                                           ; preds = %opj_stream_flush.exit
  %28 = getelementptr inbounds nuw i8, ptr %0, i64 40
  br label %35

29:                                               ; preds = %14
  %30 = load i32, ptr %4, align 8, !tbaa !26
  %31 = or i32 %30, 8
  store i32 %31, ptr %4, align 8, !tbaa !26
  %32 = tail call i32 (ptr, i32, ptr, ...) @opj_event_msg(ptr noundef %2, i32 noundef 4, ptr noundef nonnull @.str.1) #9
  %33 = load i32, ptr %4, align 8, !tbaa !26
  %34 = or i32 %33, 8
  store i32 %34, ptr %4, align 8, !tbaa !26
  store i64 0, ptr %11, align 8, !tbaa !33
  br label %55

35:                                               ; preds = %.lr.ph, %48
  %.033 = phi i64 [ 0, %.lr.ph ], [ %50, %48 ]
  %.02532 = phi i64 [ %1, %.lr.ph ], [ %49, %48 ]
  %36 = load ptr, ptr %28, align 8, !tbaa !31
  %37 = load ptr, ptr %0, align 8, !tbaa !36
  %38 = tail call i64 %36(i64 noundef %.02532, ptr noundef %37) #9
  %39 = icmp eq i64 %38, -1
  br i1 %39, label %40, label %48

40:                                               ; preds = %35
  %41 = tail call i32 (ptr, i32, ptr, ...) @opj_event_msg(ptr noundef %2, i32 noundef 4, ptr noundef nonnull @.str.2) #9
  %42 = load i32, ptr %4, align 8, !tbaa !26
  %43 = or i32 %42, 8
  store i32 %43, ptr %4, align 8, !tbaa !26
  %44 = getelementptr inbounds nuw i8, ptr %0, i64 96
  %45 = load i64, ptr %44, align 8, !tbaa !34
  %46 = add nsw i64 %45, %.033
  store i64 %46, ptr %44, align 8, !tbaa !34
  %.not28 = icmp eq i64 %.033, 0
  %47 = select i1 %.not28, i64 -1, i64 %.033
  br label %55

48:                                               ; preds = %35
  %49 = sub nsw i64 %.02532, %38
  %50 = add nsw i64 %38, %.033
  %51 = icmp sgt i64 %49, 0
  br i1 %51, label %35, label %._crit_edge, !llvm.loop !39

._crit_edge:                                      ; preds = %48, %opj_stream_flush.exit
  %.0.lcssa = phi i64 [ 0, %opj_stream_flush.exit ], [ %50, %48 ]
  %52 = getelementptr inbounds nuw i8, ptr %0, i64 96
  %53 = load i64, ptr %52, align 8, !tbaa !34
  %54 = add nsw i64 %53, %.0.lcssa
  store i64 %54, ptr %52, align 8, !tbaa !34
  br label %55

55:                                               ; preds = %3, %._crit_edge, %40, %29
  %.024 = phi i64 [ %47, %40 ], [ %.0.lcssa, %._crit_edge ], [ -1, %29 ], [ -1, %3 ]
  ret i64 %.024
}